; Function Attrs: mustprogress uwtable
define dso_local void @_ZN22DefaultRndNumGenerator15RandomHexDigitsB5cxx11Ei(ptr dead_on_unwind noalias writable sret(%"class.std::__cxx11::basic_string") align 8 %0, ptr noundef nonnull align 8 dereferenceable(56) %1, i32 noundef %2) unnamed_addr #3 align 2 personality ptr @__gxx_personality_v0 {
  %4 = tail call noundef zeroext i1 @_ZN9CGOptions9is_randomEv()
  br i1 %4, label %6, label %5

5:                                                ; preds = %3
  tail call void @_ZN18AbsRndNumGenerator15RandomHexDigitsB5cxx11Ei(ptr dead_on_unwind writable sret(%"class.std::__cxx11::basic_string") align 8 %0, ptr noundef nonnull align 8 dereferenceable(8) %1, i32 noundef %2)
  br label %.loopexit

6:                                                ; preds = %3
  tail call void @_ZNSt7__cxx1112basic_stringIcSt11char_traitsIcESaIcEEC1Ev(ptr noundef nonnull align 8 dereferenceable(32) %0) #11
  %7 = invoke noundef ptr @_ZN18AbsRndNumGenerator8get_hex1Ev()
          to label %.preheader unwind label %.loopexit.split-lp

.preheader:                                       ; preds = %6
  %.not9 = icmp eq i32 %2, 0
  br i1 %.not9, label %.loopexit, label %.lr.ph

.lr.ph:                                           ; preds = %.preheader
  %8 = getelementptr inbounds i8, ptr %1, i64 48
  %9 = getelementptr inbounds i8, ptr %1, i64 8
  br label %10

10:                                               ; preds = %.lr.ph, %30
  %.in = phi i32 [ %2, %.lr.ph ], [ %11, %30 ]
  %11 = add nsw i32 %.in, -1
  %12 = load ptr, ptr %1, align 8
  %13 = getelementptr inbounds i8, ptr %12, i64 80
  %14 = load ptr, ptr %13, align 8
  %15 = invoke noundef i64 %14(ptr noundef nonnull align 8 dereferenceable(56) %1)
          to label %16 unwind label %.loopexit8

16:                                               ; preds = %10
  %17 = and i64 %15, 15
  %18 = getelementptr inbounds i8, ptr %7, i64 %17
  %19 = load i8, ptr %18, align 1
  %20 = invoke noundef nonnull align 8 dereferenceable(32) ptr @_ZNSt7__cxx1112basic_stringIcSt11char_traitsIcESaIcEEpLEc(ptr noundef nonnull align 8 dereferenceable(32) %0, i8 noundef signext %19)
          to label %21 unwind label %.loopexit8

21:                                               ; preds = %16
  %22 = trunc i64 %15 to i32
  %23 = and i32 %22, 15
  %24 = load ptr, ptr %8, align 8
  %25 = load i64, ptr %9, align 8
  %26 = trunc i64 %25 to i32
  %27 = load ptr, ptr %24, align 8
  %28 = getelementptr inbounds i8, ptr %27, i64 32
  %29 = load ptr, ptr %28, align 8
  invoke void %29(ptr noundef nonnull align 8 dereferenceable(8) %24, i32 noundef %23, i32 noundef 16, i32 noundef %26)
          to label %30 unwind label %.loopexit8

30:                                               ; preds = %21
  %31 = load i64, ptr %9, align 8
  %32 = add i64 %31, 1
  store i64 %32, ptr %9, align 8
  %.not = icmp eq i32 %11, 0
  br i1 %.not, label %.loopexit, label %10, !llvm.loop !7

.loopexit8:                                       ; preds = %10, %16, %21
  %lpad.loopexit = landingpad { ptr, i32 }
          cleanup
  br label %33

.loopexit.split-lp:                               ; preds = %6
  %lpad.loopexit.split-lp = landingpad { ptr, i32 }
          cleanup
  br label %33

33:                                               ; preds = %.loopexit.split-lp, %.loopexit8
  %lpad.phi = phi { ptr, i32 } [ %lpad.loopexit, %.loopexit8 ], [ %lpad.loopexit.split-lp, %.loopexit.split-lp ]
  tail call void @_ZNSt7__cxx1112basic_stringIcSt11char_traitsIcESaIcEED1Ev(ptr noundef nonnull align 8 dereferenceable(32) %0) #11
  resume { ptr, i32 } %lpad.phi

.loopexit:                                        ; preds = %30, %.preheader, %5
  ret void
}